target datalayout = "e-m:e-p270:32:32-p271:32:32-p272:64:64-i64:64-i128:128-f80:128-n8:16:32:64-S128"
target triple = "x86_64-pc-linux-gnu"

@use_extended_sequence_numbers_default = internal global i8 0, align 1
@capture_contains_fcs_crc_default = internal global i8 0, align 1

; Function Attrs: null_pointer_is_valid sspstrong uwtable
define internal i32 @dissect_mtp2(ptr noundef %0, ptr noundef %1, ptr noundef %2, ptr noundef %3) #0 {
  %5 = alloca ptr, align 8
  %6 = alloca ptr, align 8
  %7 = alloca ptr, align 8
  %8 = alloca ptr, align 8
  store ptr %0, ptr %5, align 8
  store ptr %1, ptr %6, align 8
  store ptr %2, ptr %7, align 8
  store ptr %3, ptr %8, align 8
  %9 = load ptr, ptr %5, align 8
  %10 = load ptr, ptr %6, align 8
  %11 = load ptr, ptr %7, align 8
  %12 = load i8, ptr @capture_contains_fcs_crc_default, align 1, !range !6, !noundef !7
  %13 = trunc i8 %12 to i1
  %14 = load i8, ptr @use_extended_sequence_numbers_default, align 1, !range !6, !noundef !7
  %15 = trunc i8 %14 to i1
  call void @dissect_mtp2_common(ptr noundef %9, ptr noundef %10, ptr noundef %11, i1 noundef zeroext %13, i1 noundef zeroext %15)
  %16 = load ptr, ptr %5, align 8
  %17 = call i32 @tvb_captured_length(ptr noundef %16)
  ret i32 %17
}