; Function Attrs: null_pointer_is_valid sspstrong uwtable
define internal i32 @dissect_mtp2(ptr noundef %0, ptr noundef %1, ptr noundef %2, ptr readnone captures(none) %3) #0 {
  %5 = load i8, ptr @capture_contains_fcs_crc_default, align 1, !range !6, !noundef !7
  %6 = trunc nuw i8 %5 to i1
  %7 = load i8, ptr @use_extended_sequence_numbers_default, align 1, !range !6, !noundef !7
  %8 = trunc nuw i8 %7 to i1
  tail call fastcc void @dissect_mtp2_common(ptr noundef %0, ptr noundef %1, ptr noundef %2, i1 noundef zeroext %6, i1 noundef zeroext %8)
  %9 = tail call i32 @tvb_captured_length(ptr noundef %0)
  ret i32 %9
}